target datalayout = "e-m:e-p270:32:32-p271:32:32-p272:64:64-i64:64-i128:128-f80:128-n8:16:32:64-S128"
target triple = "x86_64-pc-linux-gnu"

%"class.Json::Value" = type { %"union.Json::Value::ValueHolder", %struct.anon, %"class.Json::Value::Comments", i64, i64 }
%"union.Json::Value::ValueHolder" = type { i64 }
%struct.anon = type { i16, [2 x i8] }
%"class.Json::Value::Comments" = type { %"class.std::unique_ptr" }
%"class.std::unique_ptr" = type { %"struct.std::__uniq_ptr_data" }
%"struct.std::__uniq_ptr_data" = type { %"class.std::__uniq_ptr_impl" }
%"class.std::__uniq_ptr_impl" = type { %"class.std::tuple" }
%"class.std::tuple" = type { %"struct.std::_Tuple_impl" }
%"struct.std::_Tuple_impl" = type { %"struct.std::_Head_base.56" }
%"struct.std::_Head_base.56" = type { ptr }
%"class.open3d::visualization::ViewParameters" = type { %"class.open3d::utility::IJsonConvertible", double, double, %"class.Eigen::Matrix.3", %"class.Eigen::Matrix.3", %"class.Eigen::Matrix.3", %"class.Eigen::Matrix.3", %"class.Eigen::Matrix.3" }
%"class.open3d::utility::IJsonConvertible" = type { ptr }
%"class.Eigen::Matrix.3" = type { %"class.Eigen::PlainObjectBase.4" }
%"class.Eigen::PlainObjectBase.4" = type { %"class.Eigen::DenseStorage.11" }
%"class.Eigen::DenseStorage.11" = type { %"struct.Eigen::internal::plain_array.12" }
%"struct.Eigen::internal::plain_array.12" = type { [3 x double] }

@.str = private unnamed_addr constant [14 x i8] c"field_of_view\00", align 1
@.str.3 = private unnamed_addr constant [5 x i8] c"zoom\00", align 1
@.str.4 = private unnamed_addr constant [7 x i8] c"lookat\00", align 1
@.str.5 = private unnamed_addr constant [3 x i8] c"up\00", align 1
@.str.6 = private unnamed_addr constant [6 x i8] c"front\00", align 1
@.str.7 = private unnamed_addr constant [16 x i8] c"boundingbox_min\00", align 1
@.str.8 = private unnamed_addr constant [16 x i8] c"boundingbox_max\00", align 1
@.str.9 = private unnamed_addr constant [146 x i8] c"generated/home/dtcxzyw/WorkSpace/Projects/compilers/llvm-opt-benchmark/bench/open3d/Open3D/cpp/open3d/visualization/visualizer/ViewParameters.cpp\00", align 1
@__PRETTY_FUNCTION__._ZN6open3d13visualization14ViewParameters20ConvertFromJsonValueERKN4Json5ValueE = private unnamed_addr constant [94 x i8] c"virtual bool open3d::visualization::ViewParameters::ConvertFromJsonValue(const Json::Value &)\00", align 1
@.str.10 = private unnamed_addr constant [58 x i8] c"ViewParameters read JSON failed: unsupported json format.\00", align 1
@.str.11 = private unnamed_addr constant [47 x i8] c"ViewParameters read JSON failed: wrong format.\00", align 1

; Function Attrs: mustprogress ssp uwtable
define noundef zeroext i1 @_ZN6open3d13visualization14ViewParameters20ConvertFromJsonValueERKN4Json5ValueE(ptr noundef nonnull align 8 dereferenceable(144) %0, ptr noundef nonnull align 8 dereferenceable(40) %1) unnamed_addr #1 align 2 personality ptr @__gxx_personality_v0 {
  %3 = alloca i1, align 1
  %4 = alloca ptr, align 8
  %5 = alloca ptr, align 8
  %6 = alloca %"class.Json::Value", align 8
  %7 = alloca %"class.Json::Value", align 8
  %8 = alloca ptr, align 8
  %9 = alloca i32, align 4
  %10 = alloca %"class.Json::Value", align 8
  %11 = alloca %"class.Json::Value", align 8
  store ptr %0, ptr %4, align 8, !tbaa !9
  store ptr %1, ptr %5, align 8, !tbaa !11
  %12 = load ptr, ptr %4, align 8
  %13 = load ptr, ptr %5, align 8, !tbaa !11
  %14 = call noundef zeroext i1 @_ZNK4Json5Value8isObjectEv(ptr noundef nonnull align 8 dereferenceable(40) %13)
  br i1 %14, label %16, label %15

15:                                               ; preds = %2
  call void @_ZN6open3d7utility6Logger11LogWarning_IJEEEvPKciS4_S4_DpOT_(ptr noundef @.str.9, i32 noundef 65, ptr noundef @__PRETTY_FUNCTION__._ZN6open3d13visualization14ViewParameters20ConvertFromJsonValueERKN4Json5ValueE, ptr noundef @.str.10)
  store i1 false, ptr %3, align 1
  br label %75

16:                                               ; preds = %2
  call void @llvm.lifetime.start.p0(i64 40, ptr %6) #17
  %17 = load ptr, ptr %5, align 8, !tbaa !11
  call void @llvm.lifetime.start.p0(i64 40, ptr %7) #17
  call void @_ZN4Json5ValueC1Ed(ptr noundef nonnull align 8 dereferenceable(40) %7, double noundef 6.000000e+01)
  invoke void @_ZNK4Json5Value3getEPKcRKS0_(ptr dead_on_unwind writable sret(%"class.Json::Value") align 8 %6, ptr noundef nonnull align 8 dereferenceable(40) %17, ptr noundef @.str, ptr noundef nonnull align 8 dereferenceable(40) %7)
          to label %18 unwind label %32

18:                                               ; preds = %16
  %19 = invoke noundef double @_ZNK4Json5Value8asDoubleEv(ptr noundef nonnull align 8 dereferenceable(40) %6)
          to label %20 unwind label %36

20:                                               ; preds = %18
  %21 = getelementptr inbounds nuw %"class.open3d::visualization::ViewParameters", ptr %12, i32 0, i32 1
  store double %19, ptr %21, align 8, !tbaa !13
  call void @_ZN4Json5ValueD1Ev(ptr noundef nonnull align 8 dereferenceable(40) %6) #17
  call void @_ZN4Json5ValueD1Ev(ptr noundef nonnull align 8 dereferenceable(40) %7) #17
  call void @llvm.lifetime.end.p0(i64 40, ptr %7) #17
  call void @llvm.lifetime.end.p0(i64 40, ptr %6) #17
  call void @llvm.lifetime.start.p0(i64 40, ptr %10) #17
  %22 = load ptr, ptr %5, align 8, !tbaa !11
  call void @llvm.lifetime.start.p0(i64 40, ptr %11) #17
  call void @_ZN4Json5ValueC1Ed(ptr noundef nonnull align 8 dereferenceable(40) %11, double noundef 0x3FE6666666666666)
  invoke void @_ZNK4Json5Value3getEPKcRKS0_(ptr dead_on_unwind writable sret(%"class.Json::Value") align 8 %10, ptr noundef nonnull align 8 dereferenceable(40) %22, ptr noundef @.str.3, ptr noundef nonnull align 8 dereferenceable(40) %11)
          to label %23 unwind label %41

23:                                               ; preds = %20
  %24 = invoke noundef double @_ZNK4Json5Value8asDoubleEv(ptr noundef nonnull align 8 dereferenceable(40) %10)
          to label %25 unwind label %45

25:                                               ; preds = %23
  %26 = getelementptr inbounds nuw %"class.open3d::visualization::ViewParameters", ptr %12, i32 0, i32 2
  store double %24, ptr %26, align 8, !tbaa !21
  call void @_ZN4Json5ValueD1Ev(ptr noundef nonnull align 8 dereferenceable(40) %10) #17
  call void @_ZN4Json5ValueD1Ev(ptr noundef nonnull align 8 dereferenceable(40) %11) #17
  call void @llvm.lifetime.end.p0(i64 40, ptr %11) #17
  call void @llvm.lifetime.end.p0(i64 40, ptr %10) #17
  %27 = getelementptr inbounds nuw %"class.open3d::visualization::ViewParameters", ptr %12, i32 0, i32 3
  %28 = load ptr, ptr %5, align 8, !tbaa !11
  %29 = call noundef nonnull align 8 dereferenceable(40) ptr @_ZNK4Json5ValueixEPKc(ptr noundef nonnull align 8 dereferenceable(40) %28, ptr noundef @.str.4)
  %30 = call noundef zeroext i1 @_ZN6open3d7utility16IJsonConvertible26EigenVector3dFromJsonArrayERN5Eigen6MatrixIdLi3ELi1ELi0ELi3ELi1EEERKN4Json5ValueE(ptr noundef nonnull align 8 dereferenceable(24) %27, ptr noundef nonnull align 8 dereferenceable(40) %29)
  br i1 %30, label %50, label %31

31:                                               ; preds = %25
  call void @_ZN6open3d7utility6Logger11LogWarning_IJEEEvPKciS4_S4_DpOT_(ptr noundef @.str.9, i32 noundef 71, ptr noundef @__PRETTY_FUNCTION__._ZN6open3d13visualization14ViewParameters20ConvertFromJsonValueERKN4Json5ValueE, ptr noundef @.str.11)
  store i1 false, ptr %3, align 1
  br label %75

32:                                               ; preds = %16
  %33 = landingpad { ptr, i32 }
          cleanup
  %34 = extractvalue { ptr, i32 } %33, 0
  store ptr %34, ptr %8, align 8
  %35 = extractvalue { ptr, i32 } %33, 1
  store i32 %35, ptr %9, align 4
  br label %40

36:                                               ; preds = %18
  %37 = landingpad { ptr, i32 }
          cleanup
  %38 = extractvalue { ptr, i32 } %37, 0
  store ptr %38, ptr %8, align 8
  %39 = extractvalue { ptr, i32 } %37, 1
  store i32 %39, ptr %9, align 4
  call void @_ZN4Json5ValueD1Ev(ptr noundef nonnull align 8 dereferenceable(40) %6) #17
  br label %40

40:                                               ; preds = %36, %32
  call void @_ZN4Json5ValueD1Ev(ptr noundef nonnull align 8 dereferenceable(40) %7) #17
  call void @llvm.lifetime.end.p0(i64 40, ptr %7) #17
  call void @llvm.lifetime.end.p0(i64 40, ptr %6) #17
  br label %77

41:                                               ; preds = %20
  %42 = landingpad { ptr, i32 }
          cleanup
  %43 = extractvalue { ptr, i32 } %42, 0
  store ptr %43, ptr %8, align 8
  %44 = extractvalue { ptr, i32 } %42, 1
  store i32 %44, ptr %9, align 4
  br label %49

45:                                               ; preds = %23
  %46 = landingpad { ptr, i32 }
          cleanup
  %47 = extractvalue { ptr, i32 } %46, 0
  store ptr %47, ptr %8, align 8
  %48 = extractvalue { ptr, i32 } %46, 1
  store i32 %48, ptr %9, align 4
  call void @_ZN4Json5ValueD1Ev(ptr noundef nonnull align 8 dereferenceable(40) %10) #17
  br label %49

49:                                               ; preds = %45, %41
  call void @_ZN4Json5ValueD1Ev(ptr noundef nonnull align 8 dereferenceable(40) %11) #17
  call void @llvm.lifetime.end.p0(i64 40, ptr %11) #17
  call void @llvm.lifetime.end.p0(i64 40, ptr %10) #17
  br label %77

50:                                               ; preds = %25
  %51 = getelementptr inbounds nuw %"class.open3d::visualization::ViewParameters", ptr %12, i32 0, i32 4
  %52 = load ptr, ptr %5, align 8, !tbaa !11
  %53 = call noundef nonnull align 8 dereferenceable(40) ptr @_ZNK4Json5ValueixEPKc(ptr noundef nonnull align 8 dereferenceable(40) %52, ptr noundef @.str.5)
  %54 = call noundef zeroext i1 @_ZN6open3d7utility16IJsonConvertible26EigenVector3dFromJsonArrayERN5Eigen6MatrixIdLi3ELi1ELi0ELi3ELi1EEERKN4Json5ValueE(ptr noundef nonnull align 8 dereferenceable(24) %51, ptr noundef nonnull align 8 dereferenceable(40) %53)
  br i1 %54, label %56, label %55

55:                                               ; preds = %50
  call void @_ZN6open3d7utility6Logger11LogWarning_IJEEEvPKciS4_S4_DpOT_(ptr noundef @.str.9, i32 noundef 75, ptr noundef @__PRETTY_FUNCTION__._ZN6open3d13visualization14ViewParameters20ConvertFromJsonValueERKN4Json5ValueE, ptr noundef @.str.11)
  store i1 false, ptr %3, align 1
  br label %75

56:                                               ; preds = %50
  %57 = getelementptr inbounds nuw %"class.open3d::visualization::ViewParameters", ptr %12, i32 0, i32 5
  %58 = load ptr, ptr %5, align 8, !tbaa !11
  %59 = call noundef nonnull align 8 dereferenceable(40) ptr @_ZNK4Json5ValueixEPKc(ptr noundef nonnull align 8 dereferenceable(40) %58, ptr noundef @.str.6)
  %60 = call noundef zeroext i1 @_ZN6open3d7utility16IJsonConvertible26EigenVector3dFromJsonArrayERN5Eigen6MatrixIdLi3ELi1ELi0ELi3ELi1EEERKN4Json5ValueE(ptr noundef nonnull align 8 dereferenceable(24) %57, ptr noundef nonnull align 8 dereferenceable(40) %59)
  br i1 %60, label %62, label %61

61:                                               ; preds = %56
  call void @_ZN6open3d7utility6Logger11LogWarning_IJEEEvPKciS4_S4_DpOT_(ptr noundef @.str.9, i32 noundef 79, ptr noundef @__PRETTY_FUNCTION__._ZN6open3d13visualization14ViewParameters20ConvertFromJsonValueERKN4Json5ValueE, ptr noundef @.str.11)
  store i1 false, ptr %3, align 1
  br label %75

62:                                               ; preds = %56
  %63 = getelementptr inbounds nuw %"class.open3d::visualization::ViewParameters", ptr %12, i32 0, i32 6
  %64 = load ptr, ptr %5, align 8, !tbaa !11
  %65 = call noundef nonnull align 8 dereferenceable(40) ptr @_ZNK4Json5ValueixEPKc(ptr noundef nonnull align 8 dereferenceable(40) %64, ptr noundef @.str.7)
  %66 = call noundef zeroext i1 @_ZN6open3d7utility16IJsonConvertible26EigenVector3dFromJsonArrayERN5Eigen6MatrixIdLi3ELi1ELi0ELi3ELi1EEERKN4Json5ValueE(ptr noundef nonnull align 8 dereferenceable(24) %63, ptr noundef nonnull align 8 dereferenceable(40) %65)
  br i1 %66, label %68, label %67

67:                                               ; preds = %62
  call void @_ZN6open3d7utility6Logger11LogWarning_IJEEEvPKciS4_S4_DpOT_(ptr noundef @.str.9, i32 noundef 84, ptr noundef @__PRETTY_FUNCTION__._ZN6open3d13visualization14ViewParameters20ConvertFromJsonValueERKN4Json5ValueE, ptr noundef @.str.11)
  store i1 false, ptr %3, align 1
  br label %75

68:                                               ; preds = %62
  %69 = getelementptr inbounds nuw %"class.open3d::visualization::ViewParameters", ptr %12, i32 0, i32 7
  %70 = load ptr, ptr %5, align 8, !tbaa !11
  %71 = call noundef nonnull align 8 dereferenceable(40) ptr @_ZNK4Json5ValueixEPKc(ptr noundef nonnull align 8 dereferenceable(40) %70, ptr noundef @.str.8)
  %72 = call noundef zeroext i1 @_ZN6open3d7utility16IJsonConvertible26EigenVector3dFromJsonArrayERN5Eigen6MatrixIdLi3ELi1ELi0ELi3ELi1EEERKN4Json5ValueE(ptr noundef nonnull align 8 dereferenceable(24) %69, ptr noundef nonnull align 8 dereferenceable(40) %71)
  br i1 %72, label %74, label %73

73:                                               ; preds = %68
  call void @_ZN6open3d7utility6Logger11LogWarning_IJEEEvPKciS4_S4_DpOT_(ptr noundef @.str.9, i32 noundef 89, ptr noundef @__PRETTY_FUNCTION__._ZN6open3d13visualization14ViewParameters20ConvertFromJsonValueERKN4Json5ValueE, ptr noundef @.str.11)
  store i1 false, ptr %3, align 1
  br label %75

74:                                               ; preds = %68
  store i1 true, ptr %3, align 1
  br label %75

75:                                               ; preds = %74, %73, %67, %61, %55, %31, %15
  %76 = load i1, ptr %3, align 1
  ret i1 %76

77:                                               ; preds = %49, %40
  %78 = load ptr, ptr %8, align 8
  %79 = load i32, ptr %9, align 4
  %80 = insertvalue { ptr, i32 } poison, ptr %78, 0
  %81 = insertvalue { ptr, i32 } %80, i32 %79, 1
  resume { ptr, i32 } %81
}