; Function Attrs: mustprogress ssp uwtable
define noundef zeroext i1 @_ZN6open3d13visualization14ViewParameters20ConvertFromJsonValueERKN4Json5ValueE(ptr noundef nonnull align 8 dereferenceable(144) %0, ptr noundef nonnull align 8 dereferenceable(40) %1) unnamed_addr #1 align 2 personality ptr @__gxx_personality_v0 {
  %3 = alloca %"class.Json::Value", align 8
  %4 = alloca %"class.Json::Value", align 8
  %5 = alloca %"class.Json::Value", align 8
  %6 = alloca %"class.Json::Value", align 8
  %7 = tail call noundef zeroext i1 @_ZNK4Json5Value8isObjectEv(ptr noundef nonnull align 8 dereferenceable(40) %1)
  br i1 %7, label %9, label %8

8:                                                ; preds = %2
  tail call void @_ZN6open3d7utility6Logger11LogWarning_IJEEEvPKciS4_S4_DpOT_(ptr noundef nonnull @.str.9, i32 noundef 65, ptr noundef nonnull @__PRETTY_FUNCTION__._ZN6open3d13visualization14ViewParameters20ConvertFromJsonValueERKN4Json5ValueE, ptr noundef nonnull @.str.10)
  br label %52

9:                                                ; preds = %2
  call void @llvm.lifetime.start.p0(i64 40, ptr nonnull %3) #13
  call void @llvm.lifetime.start.p0(i64 40, ptr nonnull %4) #13
  call void @_ZN4Json5ValueC1Ed(ptr noundef nonnull align 8 dereferenceable(40) %4, double noundef 6.000000e+01)
  invoke void @_ZNK4Json5Value3getEPKcRKS0_(ptr dead_on_unwind nonnull writable sret(%"class.Json::Value") align 8 %3, ptr noundef nonnull align 8 dereferenceable(40) %1, ptr noundef nonnull @.str, ptr noundef nonnull align 8 dereferenceable(40) %4)
          to label %10 unwind label %22

10:                                               ; preds = %9
  %11 = invoke noundef double @_ZNK4Json5Value8asDoubleEv(ptr noundef nonnull align 8 dereferenceable(40) %3)
          to label %12 unwind label %24

12:                                               ; preds = %10
  %13 = getelementptr inbounds nuw i8, ptr %0, i64 8
  store double %11, ptr %13, align 8, !tbaa !4
  call void @_ZN4Json5ValueD1Ev(ptr noundef nonnull align 8 dereferenceable(40) %3) #13
  call void @_ZN4Json5ValueD1Ev(ptr noundef nonnull align 8 dereferenceable(40) %4) #13
  call void @llvm.lifetime.end.p0(i64 40, ptr nonnull %4) #13
  call void @llvm.lifetime.end.p0(i64 40, ptr nonnull %3) #13
  call void @llvm.lifetime.start.p0(i64 40, ptr nonnull %5) #13
  call void @llvm.lifetime.start.p0(i64 40, ptr nonnull %6) #13
  call void @_ZN4Json5ValueC1Ed(ptr noundef nonnull align 8 dereferenceable(40) %6, double noundef 0x3FE6666666666666)
  invoke void @_ZNK4Json5Value3getEPKcRKS0_(ptr dead_on_unwind nonnull writable sret(%"class.Json::Value") align 8 %5, ptr noundef nonnull align 8 dereferenceable(40) %1, ptr noundef nonnull @.str.3, ptr noundef nonnull align 8 dereferenceable(40) %6)
          to label %14 unwind label %27

14:                                               ; preds = %12
  %15 = invoke noundef double @_ZNK4Json5Value8asDoubleEv(ptr noundef nonnull align 8 dereferenceable(40) %5)
          to label %16 unwind label %29

16:                                               ; preds = %14
  %17 = getelementptr inbounds nuw i8, ptr %0, i64 16
  store double %15, ptr %17, align 8, !tbaa !14
  call void @_ZN4Json5ValueD1Ev(ptr noundef nonnull align 8 dereferenceable(40) %5) #13
  call void @_ZN4Json5ValueD1Ev(ptr noundef nonnull align 8 dereferenceable(40) %6) #13
  call void @llvm.lifetime.end.p0(i64 40, ptr nonnull %6) #13
  call void @llvm.lifetime.end.p0(i64 40, ptr nonnull %5) #13
  %18 = getelementptr inbounds nuw i8, ptr %0, i64 24
  %19 = call noundef nonnull align 8 dereferenceable(40) ptr @_ZNK4Json5ValueixEPKc(ptr noundef nonnull align 8 dereferenceable(40) %1, ptr noundef nonnull @.str.4)
  %20 = call noundef zeroext i1 @_ZN6open3d7utility16IJsonConvertible26EigenVector3dFromJsonArrayERN5Eigen6MatrixIdLi3ELi1ELi0ELi3ELi1EEERKN4Json5ValueE(ptr noundef nonnull align 8 dereferenceable(24) %18, ptr noundef nonnull align 8 dereferenceable(40) %19)
  br i1 %20, label %32, label %21

21:                                               ; preds = %16
  call void @_ZN6open3d7utility6Logger11LogWarning_IJEEEvPKciS4_S4_DpOT_(ptr noundef nonnull @.str.9, i32 noundef 71, ptr noundef nonnull @__PRETTY_FUNCTION__._ZN6open3d13visualization14ViewParameters20ConvertFromJsonValueERKN4Json5ValueE, ptr noundef nonnull @.str.11)
  br label %52

22:                                               ; preds = %9
  %23 = landingpad { ptr, i32 }
          cleanup
  br label %26

24:                                               ; preds = %10
  %25 = landingpad { ptr, i32 }
          cleanup
  call void @_ZN4Json5ValueD1Ev(ptr noundef nonnull align 8 dereferenceable(40) %3) #13
  br label %26

26:                                               ; preds = %24, %22
  %.pn = phi { ptr, i32 } [ %25, %24 ], [ %23, %22 ]
  call void @_ZN4Json5ValueD1Ev(ptr noundef nonnull align 8 dereferenceable(40) %4) #13
  call void @llvm.lifetime.end.p0(i64 40, ptr nonnull %4) #13
  call void @llvm.lifetime.end.p0(i64 40, ptr nonnull %3) #13
  br label %53

27:                                               ; preds = %12
  %28 = landingpad { ptr, i32 }
          cleanup
  br label %31

29:                                               ; preds = %14
  %30 = landingpad { ptr, i32 }
          cleanup
  call void @_ZN4Json5ValueD1Ev(ptr noundef nonnull align 8 dereferenceable(40) %5) #13
  br label %31

31:                                               ; preds = %29, %27
  %.pn16 = phi { ptr, i32 } [ %30, %29 ], [ %28, %27 ]
  call void @_ZN4Json5ValueD1Ev(ptr noundef nonnull align 8 dereferenceable(40) %6) #13
  call void @llvm.lifetime.end.p0(i64 40, ptr nonnull %6) #13
  call void @llvm.lifetime.end.p0(i64 40, ptr nonnull %5) #13
  br label %53

32:                                               ; preds = %16
  %33 = getelementptr inbounds nuw i8, ptr %0, i64 48
  %34 = call noundef nonnull align 8 dereferenceable(40) ptr @_ZNK4Json5ValueixEPKc(ptr noundef nonnull align 8 dereferenceable(40) %1, ptr noundef nonnull @.str.5)
  %35 = call noundef zeroext i1 @_ZN6open3d7utility16IJsonConvertible26EigenVector3dFromJsonArrayERN5Eigen6MatrixIdLi3ELi1ELi0ELi3ELi1EEERKN4Json5ValueE(ptr noundef nonnull align 8 dereferenceable(24) %33, ptr noundef nonnull align 8 dereferenceable(40) %34)
  br i1 %35, label %37, label %36

36:                                               ; preds = %32
  call void @_ZN6open3d7utility6Logger11LogWarning_IJEEEvPKciS4_S4_DpOT_(ptr noundef nonnull @.str.9, i32 noundef 75, ptr noundef nonnull @__PRETTY_FUNCTION__._ZN6open3d13visualization14ViewParameters20ConvertFromJsonValueERKN4Json5ValueE, ptr noundef nonnull @.str.11)
  br label %52

37:                                               ; preds = %32
  %38 = getelementptr inbounds nuw i8, ptr %0, i64 72
  %39 = call noundef nonnull align 8 dereferenceable(40) ptr @_ZNK4Json5ValueixEPKc(ptr noundef nonnull align 8 dereferenceable(40) %1, ptr noundef nonnull @.str.6)
  %40 = call noundef zeroext i1 @_ZN6open3d7utility16IJsonConvertible26EigenVector3dFromJsonArrayERN5Eigen6MatrixIdLi3ELi1ELi0ELi3ELi1EEERKN4Json5ValueE(ptr noundef nonnull align 8 dereferenceable(24) %38, ptr noundef nonnull align 8 dereferenceable(40) %39)
  br i1 %40, label %42, label %41

41:                                               ; preds = %37
  call void @_ZN6open3d7utility6Logger11LogWarning_IJEEEvPKciS4_S4_DpOT_(ptr noundef nonnull @.str.9, i32 noundef 79, ptr noundef nonnull @__PRETTY_FUNCTION__._ZN6open3d13visualization14ViewParameters20ConvertFromJsonValueERKN4Json5ValueE, ptr noundef nonnull @.str.11)
  br label %52

42:                                               ; preds = %37
  %43 = getelementptr inbounds nuw i8, ptr %0, i64 96
  %44 = call noundef nonnull align 8 dereferenceable(40) ptr @_ZNK4Json5ValueixEPKc(ptr noundef nonnull align 8 dereferenceable(40) %1, ptr noundef nonnull @.str.7)
  %45 = call noundef zeroext i1 @_ZN6open3d7utility16IJsonConvertible26EigenVector3dFromJsonArrayERN5Eigen6MatrixIdLi3ELi1ELi0ELi3ELi1EEERKN4Json5ValueE(ptr noundef nonnull align 8 dereferenceable(24) %43, ptr noundef nonnull align 8 dereferenceable(40) %44)
  br i1 %45, label %47, label %46

46:                                               ; preds = %42
  call void @_ZN6open3d7utility6Logger11LogWarning_IJEEEvPKciS4_S4_DpOT_(ptr noundef nonnull @.str.9, i32 noundef 84, ptr noundef nonnull @__PRETTY_FUNCTION__._ZN6open3d13visualization14ViewParameters20ConvertFromJsonValueERKN4Json5ValueE, ptr noundef nonnull @.str.11)
  br label %52

47:                                               ; preds = %42
  %48 = getelementptr inbounds nuw i8, ptr %0, i64 120
  %49 = call noundef nonnull align 8 dereferenceable(40) ptr @_ZNK4Json5ValueixEPKc(ptr noundef nonnull align 8 dereferenceable(40) %1, ptr noundef nonnull @.str.8)
  %50 = call noundef zeroext i1 @_ZN6open3d7utility16IJsonConvertible26EigenVector3dFromJsonArrayERN5Eigen6MatrixIdLi3ELi1ELi0ELi3ELi1EEERKN4Json5ValueE(ptr noundef nonnull align 8 dereferenceable(24) %48, ptr noundef nonnull align 8 dereferenceable(40) %49)
  br i1 %50, label %52, label %51

51:                                               ; preds = %47
  call void @_ZN6open3d7utility6Logger11LogWarning_IJEEEvPKciS4_S4_DpOT_(ptr noundef nonnull @.str.9, i32 noundef 89, ptr noundef nonnull @__PRETTY_FUNCTION__._ZN6open3d13visualization14ViewParameters20ConvertFromJsonValueERKN4Json5ValueE, ptr noundef nonnull @.str.11)
  br label %52

52:                                               ; preds = %47, %51, %46, %41, %36, %21, %8
  %.014 = phi i1 [ false, %51 ], [ false, %46 ], [ false, %41 ], [ false, %36 ], [ false, %21 ], [ false, %8 ], [ true, %47 ]
  ret i1 %.014

53:                                               ; preds = %31, %26
  %.pn16.pn = phi { ptr, i32 } [ %.pn16, %31 ], [ %.pn, %26 ]
  resume { ptr, i32 } %.pn16.pn
}